target datalayout = "e-m:e-p270:32:32-p271:32:32-p272:64:64-i64:64-i128:128-f80:128-n8:16:32:64-S128"
target triple = "x86_64-pc-linux-gnu"

%struct.DCHCacheEntry = type { [120 x %struct.FormatNode], [120 x i8], i8, i8, i32 }
%struct.FormatNode = type { i8, [5 x i8], i8, ptr }

; Function Attrs: nounwind uwtable
define internal ptr @datetime_to_char_body(ptr noundef %0, ptr noundef %1, i1 noundef zeroext %2, i32 noundef %3) #0 {
  %5 = alloca ptr, align 8
  %6 = alloca ptr, align 8
  %7 = alloca i8, align 1
  %8 = alloca i32, align 4
  %9 = alloca ptr, align 8
  %10 = alloca ptr, align 8
  %11 = alloca ptr, align 8
  %12 = alloca i8, align 1
  %13 = alloca i32, align 4
  %14 = alloca ptr, align 8
  %15 = alloca ptr, align 8
  store ptr %0, ptr %5, align 8
  store ptr %1, ptr %6, align 8
  %16 = zext i1 %2 to i8
  store i8 %16, ptr %7, align 1
  store i32 %3, ptr %8, align 4
  call void @llvm.lifetime.start.p0(i64 8, ptr %9) #11
  call void @llvm.lifetime.start.p0(i64 8, ptr %10) #11
  call void @llvm.lifetime.start.p0(i64 8, ptr %11) #11
  call void @llvm.lifetime.start.p0(i64 1, ptr %12) #11
  call void @llvm.lifetime.start.p0(i64 4, ptr %13) #11
  call void @llvm.lifetime.start.p0(i64 8, ptr %14) #11
  %17 = load ptr, ptr %6, align 8
  %18 = call ptr @text_to_cstring(ptr noundef %17)
  store ptr %18, ptr %10, align 8
  %19 = load ptr, ptr %10, align 8
  %20 = call i64 @strlen(ptr noundef %19) #13
  %21 = trunc i64 %20 to i32
  store i32 %21, ptr %13, align 4
  %22 = load i32, ptr %13, align 4
  %23 = mul i32 %22, 12
  %24 = add i32 %23, 1
  %25 = sext i32 %24 to i64
  %26 = call ptr @palloc(i64 noundef %25)
  store ptr %26, ptr %11, align 8
  %27 = load ptr, ptr %11, align 8
  store i8 0, ptr %27, align 1
  %28 = load i32, ptr %13, align 4
  %29 = sext i32 %28 to i64
  %30 = icmp ugt i64 %29, 119
  br i1 %30, label %31, label %39

31:                                               ; preds = %4
  store i8 0, ptr %12, align 1
  %32 = load i32, ptr %13, align 4
  %33 = add i32 %32, 1
  %34 = sext i32 %33 to i64
  %35 = mul i64 %34, 16
  %36 = call ptr @palloc(i64 noundef %35)
  store ptr %36, ptr %9, align 8
  %37 = load ptr, ptr %9, align 8
  %38 = load ptr, ptr %10, align 8
  call void @parse_format(ptr noundef %37, ptr noundef %38, ptr noundef @DCH_keywords, ptr noundef @DCH_suff, ptr noundef @DCH_index, i32 noundef 1, ptr noundef null)
  br label %45

39:                                               ; preds = %4
  call void @llvm.lifetime.start.p0(i64 8, ptr %15) #11
  %40 = load ptr, ptr %10, align 8
  %41 = call ptr @DCH_cache_fetch(ptr noundef %40, i1 noundef zeroext false)
  store ptr %41, ptr %15, align 8
  store i8 1, ptr %12, align 1
  %42 = load ptr, ptr %15, align 8
  %43 = getelementptr inbounds nuw %struct.DCHCacheEntry, ptr %42, i32 0, i32 0
  %44 = getelementptr inbounds [120 x %struct.FormatNode], ptr %43, i64 0, i64 0
  store ptr %44, ptr %9, align 8
  call void @llvm.lifetime.end.p0(i64 8, ptr %15) #11
  br label %45

45:                                               ; preds = %39, %31
  %46 = load ptr, ptr %9, align 8
  %47 = load i8, ptr %7, align 1, !range !4, !noundef !5
  %48 = trunc i8 %47 to i1
  %49 = load ptr, ptr %5, align 8
  %50 = load ptr, ptr %11, align 8
  %51 = load i32, ptr %8, align 4
  call void @DCH_to_char(ptr noundef %46, i1 noundef zeroext %48, ptr noundef %49, ptr noundef %50, i32 noundef %51)
  %52 = load i8, ptr %12, align 1, !range !4, !noundef !5
  %53 = trunc i8 %52 to i1
  br i1 %53, label %56, label %54

54:                                               ; preds = %45
  %55 = load ptr, ptr %9, align 8
  call void @pfree(ptr noundef %55)
  br label %56

56:                                               ; preds = %54, %45
  %57 = load ptr, ptr %10, align 8
  call void @pfree(ptr noundef %57)
  %58 = load ptr, ptr %11, align 8
  %59 = call ptr @cstring_to_text(ptr noundef %58)
  store ptr %59, ptr %14, align 8
  %60 = load ptr, ptr %11, align 8
  call void @pfree(ptr noundef %60)
  %61 = load ptr, ptr %14, align 8
  call void @llvm.lifetime.end.p0(i64 8, ptr %14) #11
  call void @llvm.lifetime.end.p0(i64 4, ptr %13) #11
  call void @llvm.lifetime.end.p0(i64 1, ptr %12) #11
  call void @llvm.lifetime.end.p0(i64 8, ptr %11) #11
  call void @llvm.lifetime.end.p0(i64 8, ptr %10) #11
  call void @llvm.lifetime.end.p0(i64 8, ptr %9) #11
  ret ptr %61
}