; Function Attrs: nounwind uwtable
define internal fastcc ptr @datetime_to_char_body(ptr noundef nonnull %0, ptr noundef %1, i1 noundef zeroext %2, i32 noundef %3) unnamed_addr #0 {
  %5 = tail call ptr @text_to_cstring(ptr noundef %1) #18
  %6 = tail call i64 @strlen(ptr noundef nonnull dereferenceable(1) %5) #19
  %7 = mul i64 %6, 51539607552
  %sext = ashr exact i64 %7, 32
  %8 = or disjoint i64 %sext, 1
  %9 = tail call ptr @palloc(i64 noundef %8) #18
  store i8 0, ptr %9, align 1
  %10 = trunc i64 %6 to i32
  %11 = icmp ult i32 %10, 120
  br i1 %11, label %.thread, label %13

.thread:                                          ; preds = %4
  %12 = tail call fastcc ptr @DCH_cache_fetch(ptr noundef nonnull %5, i1 noundef zeroext false)
  tail call fastcc void @DCH_to_char(ptr noundef %12, i1 noundef zeroext %2, ptr noundef %0, ptr noundef nonnull %9, i32 noundef %3)
  br label %17

13:                                               ; preds = %4
  %14 = shl i64 %6, 32
  %sext22 = add i64 %14, 4294967296
  %15 = ashr exact i64 %sext22, 28
  %16 = tail call ptr @palloc(i64 noundef %15) #18
  tail call fastcc void @parse_format(ptr noundef %16, ptr noundef nonnull %5, ptr noundef nonnull @DCH_keywords, ptr noundef nonnull @DCH_suff, ptr noundef nonnull @DCH_index, i32 noundef 1, ptr noundef null)
  tail call fastcc void @DCH_to_char(ptr noundef %16, i1 noundef zeroext %2, ptr noundef %0, ptr noundef nonnull %9, i32 noundef %3)
  tail call void @pfree(ptr noundef %16) #18
  br label %17

17:                                               ; preds = %.thread, %13
  tail call void @pfree(ptr noundef nonnull %5) #18
  %18 = tail call ptr @cstring_to_text(ptr noundef nonnull %9) #18
  tail call void @pfree(ptr noundef nonnull %9) #18
  ret ptr %18
}